target datalayout = "e-m:e-p270:32:32-p271:32:32-p272:64:64-i64:64-i128:128-f80:128-n8:16:32:64-S128"
target triple = "x86_64-pc-linux-gnu"

%"struct.llvm::cl::GenericOptionValue" = type { ptr }
%"class.llvm::cl::OptionValueCopy.17" = type <{ %"struct.llvm::cl::GenericOptionValue", i32, i8, [3 x i8] }>

; Function Attrs: mustprogress nounwind uwtable
define internal noundef zeroext i1 @_ZNK4llvm2cl15OptionValueCopyIN12_GLOBAL__N_15LevelEE7compareERKS3_(ptr noundef nonnull align 8 dereferenceable(13) %0, ptr noundef nonnull align 4 dereferenceable(4) %1) #1 align 2 {
  %3 = alloca ptr, align 8
  %4 = alloca ptr, align 8
  store ptr %0, ptr %3, align 8
  store ptr %1, ptr %4, align 8
  %5 = load ptr, ptr %3, align 8
  %6 = getelementptr inbounds nuw %"class.llvm::cl::OptionValueCopy.17", ptr %5, i32 0, i32 2
  %7 = load i8, ptr %6, align 4
  %8 = trunc i8 %7 to i1
  br i1 %8, label %9, label %15

9:                                                ; preds = %2
  %10 = getelementptr inbounds nuw %"class.llvm::cl::OptionValueCopy.17", ptr %5, i32 0, i32 1
  %11 = load i32, ptr %10, align 8
  %12 = load ptr, ptr %4, align 8
  %13 = load i32, ptr %12, align 4
  %14 = icmp eq i32 %11, %13
  br label %15

15:                                               ; preds = %9, %2
  %16 = phi i1 [ false, %2 ], [ %14, %9 ]
  ret i1 %16
}

; Function Attrs: mustprogress nounwind uwtable
define internal noundef nonnull align 4 dereferenceable(4) ptr @_ZNK4llvm2cl15OptionValueCopyIN12_GLOBAL__N_15LevelEE8getValueEv(ptr noundef nonnull align 8 dereferenceable(13) %0) #1 align 2 {
  %2 = alloca ptr, align 8
  store ptr %0, ptr %2, align 8
  %3 = load ptr, ptr %2, align 8
  %4 = getelementptr inbounds nuw %"class.llvm::cl::OptionValueCopy.17", ptr %3, i32 0, i32 1
  ret ptr %4
}

; Function Attrs: mustprogress nounwind uwtable
define internal noundef zeroext i1 @_ZNK4llvm2cl15OptionValueCopyIN12_GLOBAL__N_15LevelEE8hasValueEv(ptr noundef nonnull align 8 dereferenceable(13) %0) #1 align 2 {
  %2 = alloca ptr, align 8
  store ptr %0, ptr %2, align 8
  %3 = load ptr, ptr %2, align 8
  %4 = getelementptr inbounds nuw %"class.llvm::cl::OptionValueCopy.17", ptr %3, i32 0, i32 2
  %5 = load i8, ptr %4, align 4
  %6 = trunc i8 %5 to i1
  ret i1 %6
}

; Function Attrs: mustprogress nounwind uwtable
define internal noundef zeroext i1 @_ZNK4llvm2cl15OptionValueCopyIN12_GLOBAL__N_15LevelEE7compareERKNS0_18GenericOptionValueE(ptr noundef nonnull align 8 dereferenceable(13) %0, ptr noundef nonnull align 8 dereferenceable(8) %1) unnamed_addr #1 align 2 {
  %3 = alloca i1, align 1
  %4 = alloca ptr, align 8
  %5 = alloca ptr, align 8
  %6 = alloca ptr, align 8
  store ptr %0, ptr %4, align 8
  store ptr %1, ptr %5, align 8
  %7 = load ptr, ptr %4, align 8
  %8 = load ptr, ptr %5, align 8
  store ptr %8, ptr %6, align 8
  %9 = load ptr, ptr %6, align 8
  %10 = call noundef zeroext i1 @_ZNK4llvm2cl15OptionValueCopyIN12_GLOBAL__N_15LevelEE8hasValueEv(ptr noundef nonnull align 8 dereferenceable(13) %9)
  br i1 %10, label %12, label %11

11:                                               ; preds = %2
  store i1 false, ptr %3, align 1
  br label %16

12:                                               ; preds = %2
  %13 = load ptr, ptr %6, align 8
  %14 = call noundef nonnull align 4 dereferenceable(4) ptr @_ZNK4llvm2cl15OptionValueCopyIN12_GLOBAL__N_15LevelEE8getValueEv(ptr noundef nonnull align 8 dereferenceable(13) %13)
  %15 = call noundef zeroext i1 @_ZNK4llvm2cl15OptionValueCopyIN12_GLOBAL__N_15LevelEE7compareERKS3_(ptr noundef nonnull align 8 dereferenceable(13) %7, ptr noundef nonnull align 4 dereferenceable(4) %14)
  store i1 %15, ptr %3, align 1
  br label %16

16:                                               ; preds = %12, %11
  %17 = load i1, ptr %3, align 1
  ret i1 %17
}