; Function Attrs: mustprogress nofree norecurse nosync nounwind willreturn memory(argmem: read) uwtable
define internal noundef zeroext i1 @_ZNK4llvm2cl15OptionValueCopyIN12_GLOBAL__N_15LevelEE7compareERKNS0_18GenericOptionValueE(ptr noundef nonnull readonly align 8 captures(none) dereferenceable(13) %0, ptr noundef nonnull readonly align 8 captures(none) dereferenceable(8) %1) unnamed_addr #13 align 2 {
  %3 = getelementptr i8, ptr %1, i64 12
  %.val = load i8, ptr %3, align 4
  %4 = trunc i8 %.val to i1
  br i1 %4, label %5, label %12

5:                                                ; preds = %2
  %6 = getelementptr inbounds nuw i8, ptr %1, i64 8
  %7 = getelementptr inbounds nuw i8, ptr %0, i64 8
  %.val5 = load i32, ptr %7, align 8
  %8 = getelementptr inbounds nuw i8, ptr %0, i64 12
  %.val6 = load i8, ptr %8, align 4
  %.val7 = load i32, ptr %6, align 8
  %9 = trunc i8 %.val6 to i1
  %10 = icmp eq i32 %.val5, %.val7
  %11 = select i1 %9, i1 %10, i1 false
  br label %12

12:                                               ; preds = %2, %5
  %.0 = phi i1 [ %11, %5 ], [ false, %2 ]
  ret i1 %.0
}